target datalayout = "e-m:e-p270:32:32-p271:32:32-p272:64:64-i64:64-i128:128-f80:128-n8:16:32:64-S128"
target triple = "x86_64-pc-linux-gnu"

%struct._dcerpc_info = type { ptr, i32, i64, i8, i8, i8, i32, i32, i32, i32, i32, i32, i32, i32, ptr, ptr, ptr, ptr, %struct.anon }
%struct.anon = type { i8, ptr, ptr, ptr, i8 }
%struct._packet_info = type { ptr, ptr, i32, i32, %struct.nstime_t, %struct.nstime_t, %struct.nstime_t, i8, ptr, ptr, ptr, ptr, %struct._address, %struct._address, %struct._address, %struct._address, %struct._address, %struct._address, i32, ptr, i8, [3 x i8], %struct.anon.0, i32, i32, i32, i32, ptr, i8, ptr, ptr, i16, i16, i32, i32, i16, i32, i32, ptr, ptr, ptr, i8, i8, i16, i16, i16, i32, i16, i16, ptr, ptr, ptr, ptr, ptr, i32, i32 }
%struct.nstime_t = type { i64, i32 }
%struct._address = type { i32, i32, ptr, ptr }
%struct.anon.0 = type { i8, [3 x i8] }

@hf_fileexp_cellidp_high = internal global i32 0, align 4
@hf_fileexp_cellidp_low = internal global i32 0, align 4
@hf_fileexp_bulkfetchvv_numvols = internal global i32 0, align 4
@hf_fileexp_bulkfetchvv_spare1 = internal global i32 0, align 4
@hf_fileexp_bulkfetchvv_spare2 = internal global i32 0, align 4
@.str.481 = private unnamed_addr constant [15 x i8] c" CellIDp:%u/%u\00", align 1

; Function Attrs: null_pointer_is_valid sspstrong uwtable
define internal i32 @fileexp_dissect_bulkfetchvv_rqst(ptr noundef %0, i32 noundef %1, ptr noundef %2, ptr noundef %3, ptr noundef %4, ptr noundef %5) #0 {
  %7 = alloca i32, align 4
  %8 = alloca ptr, align 8
  %9 = alloca i32, align 4
  %10 = alloca ptr, align 8
  %11 = alloca ptr, align 8
  %12 = alloca ptr, align 8
  %13 = alloca ptr, align 8
  %14 = alloca i32, align 4
  %15 = alloca i32, align 4
  %16 = alloca i32, align 4
  %17 = alloca i32, align 4
  %18 = alloca i32, align 4
  %19 = alloca i32, align 4
  store ptr %0, ptr %8, align 8
  store i32 %1, ptr %9, align 4
  store ptr %2, ptr %10, align 8
  store ptr %3, ptr %11, align 8
  store ptr %4, ptr %12, align 8
  store ptr %5, ptr %13, align 8
  call void @llvm.lifetime.start.p0(i64 4, ptr %14) #4
  call void @llvm.lifetime.start.p0(i64 4, ptr %15) #4
  call void @llvm.lifetime.start.p0(i64 4, ptr %16) #4
  call void @llvm.lifetime.start.p0(i64 4, ptr %17) #4
  call void @llvm.lifetime.start.p0(i64 4, ptr %18) #4
  %20 = load ptr, ptr %12, align 8
  %21 = getelementptr inbounds nuw %struct._dcerpc_info, ptr %20, i32 0, i32 4
  %22 = load i8, ptr %21, align 1, !range !6, !noundef !7
  %23 = trunc i8 %22 to i1
  br i1 %23, label %24, label %26

24:                                               ; preds = %6
  %25 = load i32, ptr %9, align 4
  store i32 %25, ptr %7, align 4
  store i32 1, ptr %19, align 4
  br label %80

26:                                               ; preds = %6
  %27 = load ptr, ptr %8, align 8
  %28 = load i32, ptr %9, align 4
  %29 = load ptr, ptr %10, align 8
  %30 = load ptr, ptr %11, align 8
  %31 = load ptr, ptr %12, align 8
  %32 = load ptr, ptr %13, align 8
  %33 = load i32, ptr @hf_fileexp_cellidp_high, align 4
  %34 = call i32 @dissect_ndr_uint32(ptr noundef %27, i32 noundef %28, ptr noundef %29, ptr noundef %30, ptr noundef %31, ptr noundef %32, i32 noundef %33, ptr noundef %14)
  store i32 %34, ptr %9, align 4
  %35 = load ptr, ptr %8, align 8
  %36 = load i32, ptr %9, align 4
  %37 = load ptr, ptr %10, align 8
  %38 = load ptr, ptr %11, align 8
  %39 = load ptr, ptr %12, align 8
  %40 = load ptr, ptr %13, align 8
  %41 = load i32, ptr @hf_fileexp_cellidp_low, align 4
  %42 = call i32 @dissect_ndr_uint32(ptr noundef %35, i32 noundef %36, ptr noundef %37, ptr noundef %38, ptr noundef %39, ptr noundef %40, i32 noundef %41, ptr noundef %15)
  store i32 %42, ptr %9, align 4
  %43 = load ptr, ptr %10, align 8
  %44 = getelementptr inbounds nuw %struct._packet_info, ptr %43, i32 0, i32 1
  %45 = load ptr, ptr %44, align 8
  %46 = load i32, ptr %14, align 4
  %47 = load i32, ptr %15, align 4
  call void (ptr, i32, ptr, ...) @col_append_fstr(ptr noundef %45, i32 noundef 25, ptr noundef @.str.481, i32 noundef %46, i32 noundef %47)
  %48 = load ptr, ptr %8, align 8
  %49 = load i32, ptr %9, align 4
  %50 = load ptr, ptr %10, align 8
  %51 = load ptr, ptr %11, align 8
  %52 = load ptr, ptr %12, align 8
  %53 = load ptr, ptr %13, align 8
  %54 = load i32, ptr @hf_fileexp_bulkfetchvv_numvols, align 4
  %55 = call i32 @dissect_ndr_uint32(ptr noundef %48, i32 noundef %49, ptr noundef %50, ptr noundef %51, ptr noundef %52, ptr noundef %53, i32 noundef %54, ptr noundef %16)
  store i32 %55, ptr %9, align 4
  %56 = load ptr, ptr %8, align 8
  %57 = load i32, ptr %9, align 4
  %58 = load ptr, ptr %10, align 8
  %59 = load ptr, ptr %11, align 8
  %60 = load ptr, ptr %12, align 8
  %61 = load ptr, ptr %13, align 8
  %62 = call i32 @dissect_afsFlags(ptr noundef %56, i32 noundef %57, ptr noundef %58, ptr noundef %59, ptr noundef %60, ptr noundef %61)
  store i32 %62, ptr %9, align 4
  %63 = load ptr, ptr %8, align 8
  %64 = load i32, ptr %9, align 4
  %65 = load ptr, ptr %10, align 8
  %66 = load ptr, ptr %11, align 8
  %67 = load ptr, ptr %12, align 8
  %68 = load ptr, ptr %13, align 8
  %69 = load i32, ptr @hf_fileexp_bulkfetchvv_spare1, align 4
  %70 = call i32 @dissect_ndr_uint32(ptr noundef %63, i32 noundef %64, ptr noundef %65, ptr noundef %66, ptr noundef %67, ptr noundef %68, i32 noundef %69, ptr noundef %17)
  store i32 %70, ptr %9, align 4
  %71 = load ptr, ptr %8, align 8
  %72 = load i32, ptr %9, align 4
  %73 = load ptr, ptr %10, align 8
  %74 = load ptr, ptr %11, align 8
  %75 = load ptr, ptr %12, align 8
  %76 = load ptr, ptr %13, align 8
  %77 = load i32, ptr @hf_fileexp_bulkfetchvv_spare2, align 4
  %78 = call i32 @dissect_ndr_uint32(ptr noundef %71, i32 noundef %72, ptr noundef %73, ptr noundef %74, ptr noundef %75, ptr noundef %76, i32 noundef %77, ptr noundef %18)
  store i32 %78, ptr %9, align 4
  %79 = load i32, ptr %9, align 4
  store i32 %79, ptr %7, align 4
  store i32 1, ptr %19, align 4
  br label %80

80:                                               ; preds = %26, %24
  call void @llvm.lifetime.end.p0(i64 4, ptr %18) #4
  call void @llvm.lifetime.end.p0(i64 4, ptr %17) #4
  call void @llvm.lifetime.end.p0(i64 4, ptr %16) #4
  call void @llvm.lifetime.end.p0(i64 4, ptr %15) #4
  call void @llvm.lifetime.end.p0(i64 4, ptr %14) #4
  %81 = load i32, ptr %7, align 4
  ret i32 %81
}